target datalayout = "e-m:e-p270:32:32-p271:32:32-p272:64:64-i64:64-i128:128-f80:128-n8:16:32:64-S128"
target triple = "x86_64-pc-linux-gnu"

%struct.curl_blob = type { ptr, i64, i32 }

@Curl_cfree = external global ptr, align 8
@Curl_cmalloc = external global ptr, align 8

; Function Attrs: nounwind uwtable
define dso_local i32 @Curl_setblobopt(ptr noundef %0, ptr noundef %1) #0 {
  %3 = alloca i32, align 4
  %4 = alloca ptr, align 8
  %5 = alloca ptr, align 8
  %6 = alloca ptr, align 8
  %7 = alloca i32, align 4
  store ptr %0, ptr %4, align 8, !tbaa !12
  store ptr %1, ptr %5, align 8, !tbaa !14
  br label %8

8:                                                ; preds = %2
  %9 = load ptr, ptr @Curl_cfree, align 8, !tbaa !11
  %10 = load ptr, ptr %4, align 8, !tbaa !12
  %11 = load ptr, ptr %10, align 8, !tbaa !14
  call void %9(ptr noundef %11)
  %12 = load ptr, ptr %4, align 8, !tbaa !12
  store ptr null, ptr %12, align 8, !tbaa !14
  br label %13

13:                                               ; preds = %8
  %14 = load ptr, ptr %5, align 8, !tbaa !14
  %15 = icmp ne ptr %14, null
  br i1 %15, label %16, label %67

16:                                               ; preds = %13
  call void @llvm.lifetime.start.p0(i64 8, ptr %6) #7
  %17 = load ptr, ptr %5, align 8, !tbaa !14
  %18 = getelementptr inbounds nuw %struct.curl_blob, ptr %17, i32 0, i32 1
  %19 = load i64, ptr %18, align 8, !tbaa !16
  %20 = icmp ugt i64 %19, 8000000
  br i1 %20, label %21, label %22

21:                                               ; preds = %16
  store i32 43, ptr %3, align 4
  store i32 1, ptr %7, align 4
  br label %66

22:                                               ; preds = %16
  %23 = load ptr, ptr @Curl_cmalloc, align 8, !tbaa !11
  %24 = load ptr, ptr %5, align 8, !tbaa !14
  %25 = getelementptr inbounds nuw %struct.curl_blob, ptr %24, i32 0, i32 2
  %26 = load i32, ptr %25, align 8, !tbaa !20
  %27 = and i32 %26, 1
  %28 = icmp ne i32 %27, 0
  br i1 %28, label %29, label %33

29:                                               ; preds = %22
  %30 = load ptr, ptr %5, align 8, !tbaa !14
  %31 = getelementptr inbounds nuw %struct.curl_blob, ptr %30, i32 0, i32 1
  %32 = load i64, ptr %31, align 8, !tbaa !16
  br label %34

33:                                               ; preds = %22
  br label %34

34:                                               ; preds = %33, %29
  %35 = phi i64 [ %32, %29 ], [ 0, %33 ]
  %36 = add i64 24, %35
  %37 = call ptr %23(i64 noundef %36)
  store ptr %37, ptr %6, align 8, !tbaa !14
  %38 = load ptr, ptr %6, align 8, !tbaa !14
  %39 = icmp ne ptr %38, null
  br i1 %39, label %41, label %40

40:                                               ; preds = %34
  store i32 27, ptr %3, align 4
  store i32 1, ptr %7, align 4
  br label %66

41:                                               ; preds = %34
  %42 = load ptr, ptr %6, align 8, !tbaa !14
  %43 = load ptr, ptr %5, align 8, !tbaa !14
  call void @llvm.memcpy.p0.p0.i64(ptr align 8 %42, ptr align 8 %43, i64 24, i1 false), !tbaa.struct !21
  %44 = load ptr, ptr %5, align 8, !tbaa !14
  %45 = getelementptr inbounds nuw %struct.curl_blob, ptr %44, i32 0, i32 2
  %46 = load i32, ptr %45, align 8, !tbaa !20
  %47 = and i32 %46, 1
  %48 = icmp ne i32 %47, 0
  br i1 %48, label %49, label %63

49:                                               ; preds = %41
  %50 = load ptr, ptr %6, align 8, !tbaa !14
  %51 = getelementptr inbounds nuw i8, ptr %50, i64 24
  %52 = load ptr, ptr %6, align 8, !tbaa !14
  %53 = getelementptr inbounds nuw %struct.curl_blob, ptr %52, i32 0, i32 0
  store ptr %51, ptr %53, align 8, !tbaa !24
  %54 = load ptr, ptr %6, align 8, !tbaa !14
  %55 = getelementptr inbounds nuw %struct.curl_blob, ptr %54, i32 0, i32 0
  %56 = load ptr, ptr %55, align 8, !tbaa !24
  %57 = load ptr, ptr %5, align 8, !tbaa !14
  %58 = getelementptr inbounds nuw %struct.curl_blob, ptr %57, i32 0, i32 0
  %59 = load ptr, ptr %58, align 8, !tbaa !24
  %60 = load ptr, ptr %5, align 8, !tbaa !14
  %61 = getelementptr inbounds nuw %struct.curl_blob, ptr %60, i32 0, i32 1
  %62 = load i64, ptr %61, align 8, !tbaa !16
  call void @llvm.memcpy.p0.p0.i64(ptr align 1 %56, ptr align 1 %59, i64 %62, i1 false)
  br label %63

63:                                               ; preds = %49, %41
  %64 = load ptr, ptr %6, align 8, !tbaa !14
  %65 = load ptr, ptr %4, align 8, !tbaa !12
  store ptr %64, ptr %65, align 8, !tbaa !14
  store i32 0, ptr %3, align 4
  store i32 1, ptr %7, align 4
  br label %66

66:                                               ; preds = %63, %40, %21
  call void @llvm.lifetime.end.p0(i64 8, ptr %6) #7
  br label %68

67:                                               ; preds = %13
  store i32 0, ptr %3, align 4
  br label %68

68:                                               ; preds = %67, %66
  %69 = load i32, ptr %3, align 4
  ret i32 %69
}